target datalayout = "e-m:e-p270:32:32-p271:32:32-p272:64:64-i64:64-i128:128-f80:128-n8:16:32:64-S128"
target triple = "x86_64-pc-linux-gnu"

%struct.AVRational = type { i32, i32 }
%struct.AVChannelLayout = type { i32, i32, %union.anon.0, ptr }
%union.anon.0 = type { i64 }
%struct.CDGraphicsContext = type { ptr, i32, i32, [16 x i8], i32 }
%struct.AVFrame = type { [8 x ptr], [8 x i32], ptr, i32, i32, i32, i32, i32, %struct.AVRational, i64, i64, %struct.AVRational, i32, ptr, i32, i32, [8 x ptr], ptr, i32, ptr, i32, i32, i32, i32, i32, i32, i32, i64, ptr, i32, ptr, ptr, i64, i64, i64, i64, ptr, %struct.AVChannelLayout, i64 }

; Function Attrs: nounwind uwtable
define internal i32 @cdg_tile_block(ptr noundef %0, ptr noundef %1, i32 noundef %2) #1 {
  %4 = alloca i32, align 4
  %5 = alloca ptr, align 8
  %6 = alloca ptr, align 8
  %7 = alloca i32, align 4
  %8 = alloca i32, align 4
  %9 = alloca i32, align 4
  %10 = alloca i32, align 4
  %11 = alloca i32, align 4
  %12 = alloca i32, align 4
  %13 = alloca i32, align 4
  %14 = alloca i64, align 8
  %15 = alloca ptr, align 8
  %16 = alloca i32, align 4
  store ptr %0, ptr %5, align 8, !tbaa !29
  store ptr %1, ptr %6, align 8, !tbaa !48
  store i32 %2, ptr %7, align 4, !tbaa !34
  call void @llvm.lifetime.start.p0(i64 4, ptr %8) #8
  call void @llvm.lifetime.start.p0(i64 4, ptr %9) #8
  call void @llvm.lifetime.start.p0(i64 4, ptr %10) #8
  call void @llvm.lifetime.start.p0(i64 4, ptr %11) #8
  call void @llvm.lifetime.start.p0(i64 4, ptr %12) #8
  call void @llvm.lifetime.start.p0(i64 4, ptr %13) #8
  call void @llvm.lifetime.start.p0(i64 8, ptr %14) #8
  %17 = load ptr, ptr %5, align 8, !tbaa !29
  %18 = getelementptr inbounds nuw %struct.CDGraphicsContext, ptr %17, i32 0, i32 0
  %19 = load ptr, ptr %18, align 8, !tbaa !31
  %20 = getelementptr inbounds nuw %struct.AVFrame, ptr %19, i32 0, i32 1
  %21 = getelementptr inbounds [8 x i32], ptr %20, i64 0, i64 0
  %22 = load i32, ptr %21, align 8, !tbaa !34
  %23 = sext i32 %22 to i64
  store i64 %23, ptr %14, align 8, !tbaa !64
  call void @llvm.lifetime.start.p0(i64 8, ptr %15) #8
  %24 = load ptr, ptr %5, align 8, !tbaa !29
  %25 = getelementptr inbounds nuw %struct.CDGraphicsContext, ptr %24, i32 0, i32 0
  %26 = load ptr, ptr %25, align 8, !tbaa !31
  %27 = getelementptr inbounds nuw %struct.AVFrame, ptr %26, i32 0, i32 0
  %28 = getelementptr inbounds [8 x ptr], ptr %27, i64 0, i64 0
  %29 = load ptr, ptr %28, align 8, !tbaa !48
  store ptr %29, ptr %15, align 8, !tbaa !48
  %30 = load ptr, ptr %6, align 8, !tbaa !48
  %31 = getelementptr inbounds i8, ptr %30, i64 2
  %32 = load i8, ptr %31, align 1, !tbaa !35
  %33 = zext i8 %32 to i32
  %34 = and i32 %33, 31
  %35 = mul nsw i32 %34, 12
  %36 = load ptr, ptr %5, align 8, !tbaa !29
  %37 = getelementptr inbounds nuw %struct.CDGraphicsContext, ptr %36, i32 0, i32 2
  %38 = load i32, ptr %37, align 4, !tbaa !73
  %39 = add nsw i32 %35, %38
  store i32 %39, ptr %9, align 4, !tbaa !34
  %40 = load ptr, ptr %6, align 8, !tbaa !48
  %41 = getelementptr inbounds i8, ptr %40, i64 3
  %42 = load i8, ptr %41, align 1, !tbaa !35
  %43 = zext i8 %42 to i32
  %44 = and i32 %43, 63
  %45 = mul nsw i32 %44, 6
  %46 = load ptr, ptr %5, align 8, !tbaa !29
  %47 = getelementptr inbounds nuw %struct.CDGraphicsContext, ptr %46, i32 0, i32 1
  %48 = load i32, ptr %47, align 8, !tbaa !74
  %49 = add nsw i32 %45, %48
  store i32 %49, ptr %8, align 4, !tbaa !34
  %50 = load i32, ptr %9, align 4, !tbaa !34
  %51 = icmp ugt i32 %50, 204
  br i1 %51, label %52, label %53

52:                                               ; preds = %3
  store i32 -22, ptr %4, align 4
  store i32 1, ptr %16, align 4
  br label %129

53:                                               ; preds = %3
  %54 = load i32, ptr %8, align 4, !tbaa !34
  %55 = icmp ugt i32 %54, 294
  br i1 %55, label %56, label %57

56:                                               ; preds = %53
  store i32 -22, ptr %4, align 4
  store i32 1, ptr %16, align 4
  br label %129

57:                                               ; preds = %53
  store i32 0, ptr %12, align 4, !tbaa !34
  br label %58

58:                                               ; preds = %125, %57
  %59 = load i32, ptr %12, align 4, !tbaa !34
  %60 = icmp slt i32 %59, 12
  br i1 %60, label %61, label %128

61:                                               ; preds = %58
  store i32 0, ptr %11, align 4, !tbaa !34
  br label %62

62:                                               ; preds = %121, %61
  %63 = load i32, ptr %11, align 4, !tbaa !34
  %64 = icmp slt i32 %63, 6
  br i1 %64, label %65, label %124

65:                                               ; preds = %62
  %66 = load ptr, ptr %6, align 8, !tbaa !48
  %67 = load i32, ptr %12, align 4, !tbaa !34
  %68 = add nsw i32 4, %67
  %69 = sext i32 %68 to i64
  %70 = getelementptr inbounds i8, ptr %66, i64 %69
  %71 = load i8, ptr %70, align 1, !tbaa !35
  %72 = zext i8 %71 to i32
  %73 = load i32, ptr %11, align 4, !tbaa !34
  %74 = sub nsw i32 5, %73
  %75 = ashr i32 %72, %74
  %76 = and i32 %75, 1
  %77 = icmp ne i32 %76, 0
  br i1 %77, label %84, label %78

78:                                               ; preds = %65
  %79 = load ptr, ptr %6, align 8, !tbaa !48
  %80 = getelementptr inbounds i8, ptr %79, i64 0
  %81 = load i8, ptr %80, align 1, !tbaa !35
  %82 = zext i8 %81 to i32
  %83 = and i32 %82, 15
  store i32 %83, ptr %10, align 4, !tbaa !34
  br label %90

84:                                               ; preds = %65
  %85 = load ptr, ptr %6, align 8, !tbaa !48
  %86 = getelementptr inbounds i8, ptr %85, i64 1
  %87 = load i8, ptr %86, align 1, !tbaa !35
  %88 = zext i8 %87 to i32
  %89 = and i32 %88, 15
  store i32 %89, ptr %10, align 4, !tbaa !34
  br label %90

90:                                               ; preds = %84, %78
  %91 = load i32, ptr %8, align 4, !tbaa !34
  %92 = load i32, ptr %11, align 4, !tbaa !34
  %93 = add i32 %91, %92
  %94 = zext i32 %93 to i64
  %95 = load i64, ptr %14, align 8, !tbaa !64
  %96 = load i32, ptr %9, align 4, !tbaa !34
  %97 = load i32, ptr %12, align 4, !tbaa !34
  %98 = add i32 %96, %97
  %99 = zext i32 %98 to i64
  %100 = mul nsw i64 %95, %99
  %101 = add nsw i64 %94, %100
  %102 = trunc i64 %101 to i32
  store i32 %102, ptr %13, align 4, !tbaa !34
  %103 = load i32, ptr %7, align 4, !tbaa !34
  %104 = icmp ne i32 %103, 0
  br i1 %104, label %105, label %114

105:                                              ; preds = %90
  %106 = load ptr, ptr %15, align 8, !tbaa !48
  %107 = load i32, ptr %13, align 4, !tbaa !34
  %108 = sext i32 %107 to i64
  %109 = getelementptr inbounds i8, ptr %106, i64 %108
  %110 = load i8, ptr %109, align 1, !tbaa !35
  %111 = zext i8 %110 to i32
  %112 = load i32, ptr %10, align 4, !tbaa !34
  %113 = xor i32 %112, %111
  store i32 %113, ptr %10, align 4, !tbaa !34
  br label %114

114:                                              ; preds = %105, %90
  %115 = load i32, ptr %10, align 4, !tbaa !34
  %116 = trunc i32 %115 to i8
  %117 = load ptr, ptr %15, align 8, !tbaa !48
  %118 = load i32, ptr %13, align 4, !tbaa !34
  %119 = sext i32 %118 to i64
  %120 = getelementptr inbounds i8, ptr %117, i64 %119
  store i8 %116, ptr %120, align 1, !tbaa !35
  br label %121

121:                                              ; preds = %114
  %122 = load i32, ptr %11, align 4, !tbaa !34
  %123 = add nsw i32 %122, 1
  store i32 %123, ptr %11, align 4, !tbaa !34
  br label %62, !llvm.loop !75

124:                                              ; preds = %62
  br label %125

125:                                              ; preds = %124
  %126 = load i32, ptr %12, align 4, !tbaa !34
  %127 = add nsw i32 %126, 1
  store i32 %127, ptr %12, align 4, !tbaa !34
  br label %58, !llvm.loop !76

128:                                              ; preds = %58
  store i32 0, ptr %4, align 4
  store i32 1, ptr %16, align 4
  br label %129

129:                                              ; preds = %128, %56, %52
  call void @llvm.lifetime.end.p0(i64 8, ptr %15) #8
  call void @llvm.lifetime.end.p0(i64 8, ptr %14) #8
  call void @llvm.lifetime.end.p0(i64 4, ptr %13) #8
  call void @llvm.lifetime.end.p0(i64 4, ptr %12) #8
  call void @llvm.lifetime.end.p0(i64 4, ptr %11) #8
  call void @llvm.lifetime.end.p0(i64 4, ptr %10) #8
  call void @llvm.lifetime.end.p0(i64 4, ptr %9) #8
  call void @llvm.lifetime.end.p0(i64 4, ptr %8) #8
  %130 = load i32, ptr %4, align 4
  ret i32 %130
}