; Function Attrs: nofree norecurse nosync nounwind memory(readwrite, inaccessiblemem: none) uwtable
define internal fastcc range(i32 -22, 1) i32 @cdg_tile_block(ptr noundef readonly captures(none) %0, ptr noundef nonnull readonly captures(none) %1, i32 noundef range(i32 0, 2) %2) unnamed_addr #2 {
  %4 = load ptr, ptr %0, align 8, !tbaa !27
  %5 = getelementptr inbounds nuw i8, ptr %4, i64 64
  %6 = load i32, ptr %5, align 8, !tbaa !38
  %7 = load ptr, ptr %4, align 8, !tbaa !37
  %8 = getelementptr inbounds nuw i8, ptr %1, i64 2
  %9 = load i8, ptr %8, align 1, !tbaa !30
  %10 = and i8 %9, 31
  %11 = zext nneg i8 %10 to i32
  %12 = mul nuw nsw i32 %11, 12
  %13 = getelementptr inbounds nuw i8, ptr %0, i64 12
  %14 = load i32, ptr %13, align 4, !tbaa !55
  %15 = add nsw i32 %12, %14
  %16 = getelementptr inbounds nuw i8, ptr %1, i64 3
  %17 = load i8, ptr %16, align 1, !tbaa !30
  %18 = and i8 %17, 63
  %19 = zext nneg i8 %18 to i32
  %20 = mul nuw nsw i32 %19, 6
  %21 = getelementptr inbounds nuw i8, ptr %0, i64 8
  %22 = load i32, ptr %21, align 8, !tbaa !56
  %23 = add nsw i32 %20, %22
  %24 = icmp ugt i32 %15, 204
  %25 = icmp ugt i32 %23, 294
  %or.cond = select i1 %24, i1 true, i1 %25
  br i1 %or.cond, label %.loopexit, label %.preheader35

.preheader35:                                     ; preds = %3
  %invariant.gep = getelementptr inbounds nuw i8, ptr %1, i64 4
  %.not34 = icmp eq i32 %2, 0
  br i1 %.not34, label %.preheader.us, label %.preheader

.preheader.us:                                    ; preds = %.preheader35, %.split.us.us
  %indvars.iv48 = phi i64 [ %indvars.iv.next49, %.split.us.us ], [ 0, %.preheader35 ]
  %gep.us = getelementptr inbounds nuw i8, ptr %invariant.gep, i64 %indvars.iv48
  %26 = trunc i64 %indvars.iv48 to i32
  %27 = add i32 %15, %26
  %28 = mul i32 %27, %6
  %29 = add i32 %28, %23
  br label %30

30:                                               ; preds = %30, %.preheader.us
  %indvars.iv44 = phi i64 [ %indvars.iv.next45, %30 ], [ 0, %.preheader.us ]
  %31 = load i8, ptr %gep.us, align 1, !tbaa !30
  %32 = zext i8 %31 to i32
  %33 = trunc i64 %indvars.iv44 to i32
  %34 = sub i32 5, %33
  %35 = lshr i32 %32, %34
  %36 = and i32 %35, 1
  %.029.in.in.in.idx.us.us = zext nneg i32 %36 to i64
  %.029.in.in.in.us.us = getelementptr inbounds nuw i8, ptr %1, i64 %.029.in.in.in.idx.us.us
  %.029.in.in.us.us = load i8, ptr %.029.in.in.in.us.us, align 1, !tbaa !30
  %.029.in.us.us = and i8 %.029.in.in.us.us, 15
  %37 = trunc nuw nsw i64 %indvars.iv44 to i32
  %38 = add i32 %29, %37
  %39 = sext i32 %38 to i64
  %40 = getelementptr inbounds i8, ptr %7, i64 %39
  store i8 %.029.in.us.us, ptr %40, align 1, !tbaa !30
  %indvars.iv.next45 = add nuw nsw i64 %indvars.iv44, 1
  %exitcond47.not = icmp eq i64 %indvars.iv.next45, 6
  br i1 %exitcond47.not, label %.split.us.us, label %30, !llvm.loop !57

.split.us.us:                                     ; preds = %30
  %indvars.iv.next49 = add nuw nsw i64 %indvars.iv48, 1
  %exitcond51.not = icmp eq i64 %indvars.iv.next49, 12
  br i1 %exitcond51.not, label %.loopexit, label %.preheader.us, !llvm.loop !58

.preheader:                                       ; preds = %.preheader35, %.split
  %indvars.iv40 = phi i64 [ %indvars.iv.next41, %.split ], [ 0, %.preheader35 ]
  %gep = getelementptr inbounds nuw i8, ptr %invariant.gep, i64 %indvars.iv40
  %41 = trunc i64 %indvars.iv40 to i32
  %42 = add i32 %15, %41
  %43 = mul i32 %42, %6
  %44 = add i32 %43, %23
  br label %45

45:                                               ; preds = %.preheader, %45
  %indvars.iv = phi i64 [ 0, %.preheader ], [ %indvars.iv.next, %45 ]
  %46 = load i8, ptr %gep, align 1, !tbaa !30
  %47 = zext i8 %46 to i32
  %48 = trunc i64 %indvars.iv to i32
  %49 = sub i32 5, %48
  %50 = lshr i32 %47, %49
  %51 = and i32 %50, 1
  %.029.in.in.in.idx = zext nneg i32 %51 to i64
  %.029.in.in.in = getelementptr inbounds nuw i8, ptr %1, i64 %.029.in.in.in.idx
  %.029.in.in = load i8, ptr %.029.in.in.in, align 1, !tbaa !30
  %.029.in = and i8 %.029.in.in, 15
  %52 = trunc nuw nsw i64 %indvars.iv to i32
  %53 = add i32 %44, %52
  %54 = sext i32 %53 to i64
  %55 = getelementptr inbounds i8, ptr %7, i64 %54
  %56 = load i8, ptr %55, align 1, !tbaa !30
  %57 = xor i8 %56, %.029.in
  store i8 %57, ptr %55, align 1, !tbaa !30
  %indvars.iv.next = add nuw nsw i64 %indvars.iv, 1
  %exitcond.not = icmp eq i64 %indvars.iv.next, 6
  br i1 %exitcond.not, label %.split, label %45, !llvm.loop !57

.split:                                           ; preds = %45
  %indvars.iv.next41 = add nuw nsw i64 %indvars.iv40, 1
  %exitcond43.not = icmp eq i64 %indvars.iv.next41, 12
  br i1 %exitcond43.not, label %.loopexit, label %.preheader, !llvm.loop !58

.loopexit:                                        ; preds = %.split, %.split.us.us, %3
  %.0 = phi i32 [ -22, %3 ], [ 0, %.split.us.us ], [ 0, %.split ]
  ret i32 %.0
}